Certificate:
    Data:
        Version: 3 (0x2)
        Serial Number: 1 (0x1)
        Signature Algorithm: md5WithRSAEncryption
        Issuer: C=US, CN=ZeroC ChatDemo Test CA, L=Palm Beach Gardens, O=ZeroC, Inc., ST=Florida/emailAddress=info@zeroc.com, OU=ChatDemo
        Validity
            Not Before: Jun 16 21:14:32 2008 GMT
            Not After : Jun 15 21:14:32 2013 GMT
        Subject: C=US, CN=Glacier2, L=Palm Beach Gardens, O=ZeroC, Inc., ST=Florida, OU=ChatDemo
        Subject Public Key Info:
            Public Key Algorithm: rsaEncryption
            RSA Public Key: (1024 bit)
                Modulus (1024 bit):
                    00:c0:66:fe:45:17:3c:45:e1:6b:7d:a6:09:f8:c1:
                    70:fa:2a:e7:90:e6:42:78:f2:65:a7:8a:f4:19:ea:
                    f7:d0:35:09:b5:2f:de:a6:b4:58:4a:0d:bd:ea:14:
                    b9:38:eb:00:03:b1:ae:3e:71:ef:9a:57:05:71:89:
                    91:43:95:b4:3d:0a:7c:52:6d:b6:51:86:de:ba:3b:
                    2a:cf:4c:bc:33:46:83:74:ba:d8:db:fe:41:c7:cc:
                    73:29:9c:22:81:00:43:2b:2a:c8:c2:ba:80:80:7d:
                    f4:fa:96:f3:35:e8:04:0b:95:19:bb:5f:99:a4:39:
                    be:92:0d:d7:bf:ef:9b:ec:69
                Exponent: 65537 (0x10001)
        X509v3 extensions:
            X509v3 Basic Constraints: 
                CA:FALSE
            X509v3 Subject Key Identifier: 
                BA:80:EC:8D:69:11:FB:4D:DD:CB:72:B4:F1:4B:2A:1C:9E:80:33:3E
            X509v3 Authority Key Identifier: 
                keyid:04:44:9C:96:B0:F4:8D:51:47:2D:9F:8E:53:F1:7F:81:A2:94:9A:8E
                DirName:/C=US/CN=ZeroC ChatDemo Test CA/L=Palm Beach Gardens/O=ZeroC, Inc./ST=Florida/emailAddress=info@zeroc.com/OU=ChatDemo
                serial:AD:3D:A4:50:20:CA:55:71

    Signature Algorithm: md5WithRSAEncryption
        3c:22:e0:2f:cd:d6:78:49:3f:d9:cf:4c:cd:1e:9c:98:84:b6:
        ec:ef:5b:d5:b7:20:95:76:e2:10:5d:e6:8d:5f:70:3c:13:a7:
        e0:6e:11:ea:d5:d5:90:d5:22:11:c8:37:9f:f6:10:ec:a8:92:
        50:30:e1:54:ed:68:64:6f:4b:47:0d:e7:f9:2f:f8:ed:d5:f9:
        06:d0:23:84:ef:10:43:c1:9e:9b:c2:6b:78:7a:73:d7:be:c9:
        35:48:d9:00:99:dc:4f:f5:4a:01:3d:7e:68:bf:36:eb:9b:be:
        8f:98:3b:e1:37:b3:ed:02:49:5f:f0:f4:a0:bf:ea:d9:a9:62:
        ff:0a:84:2d:59:12:b9:7d:89:ab:46:d0:d3:89:39:86:fc:18:
        2a:35:3c:c1:bd:b5:51:ba:78:d0:b8:1b:7b:20:44:16:6e:a6:
        b7:e2:80:06:ee:7d:9e:d1:e0:aa:2e:b9:43:d3:fc:1b:64:e3:
        d3:e7:66:b2:a2:2a:f3:f3:db:c6:11:cf:e2:82:d2:02:6c:91:
        d8:cd:55:e5:ae:6e:5e:07:ef:ca:20:53:84:fe:dd:31:3b:94:
        e2:f2:07:cf:50:7a:9c:9d:ea:66:4a:44:49:06:f2:46:bb:45:
        23:b4:74:9d:7b:fb:9d:d4:f3:b7:a7:a7:a5:e1:2a:e8:5a:ab:
        65:fb:27:fa
-----BEGIN CERTIFICATE-----
MIIEIjCCAwqgAwIBAgIBATANBgkqhkiG9w0BAQQFADCBpTELMAkGA1UEBhMCVVMx
HzAdBgNVBAMTFlplcm9DIENoYXREZW1vIFRlc3QgQ0ExGzAZBgNVBAcTElBhbG0g
QmVhY2ggR2FyZGVuczEUMBIGA1UEChMLWmVyb0MsIEluYy4xEDAOBgNVBAgTB0Zs
b3JpZGExHTAbBgkqhkiG9w0BCQEWDmluZm9AemVyb2MuY29tMREwDwYDVQQLEwhD
aGF0RGVtbzAeFw0wODA2MTYyMTE0MzJaFw0xMzA2MTUyMTE0MzJaMHgxCzAJBgNV
BAYTAlVTMREwDwYDVQQDEwhHbGFjaWVyMjEbMBkGA1UEBxMSUGFsbSBCZWFjaCBH
YXJkZW5zMRQwEgYDVQQKEwtaZXJvQywgSW5jLjEQMA4GA1UECBMHRmxvcmlkYTER
MA8GA1UECxMIQ2hhdERlbW8wgZ8wDQYJKoZIhvcNAQEBBQADgY0AMIGJAoGBAMBm
/kUXPEXha32mCfjBcPoq55DmQnjyZaeK9Bnq99A1CbUv3qa0WEoNveoUuTjrAAOx
rj5x75pXBXGJkUOVtD0KfFJttlGG3ro7Ks9MvDNGg3S62Nv+QcfMcymcIoEAQysq
yMK6gIB99PqW8zXoBAuVGbtfmaQ5vpIN17/vm+xpAgMBAAGjggELMIIBBzAJBgNV
HRMEAjAAMB0GA1UdDgQWBBS6gOyNaRH7Td3LcrTxSyocnoAzPjCB2gYDVR0jBIHS
MIHPgBQERJyWsPSNUUctn45T8X+BopSajqGBq6SBqDCBpTELMAkGA1UEBhMCVVMx
HzAdBgNVBAMTFlplcm9DIENoYXREZW1vIFRlc3QgQ0ExGzAZBgNVBAcTElBhbG0g
QmVhY2ggR2FyZGVuczEUMBIGA1UEChMLWmVyb0MsIEluYy4xEDAOBgNVBAgTB0Zs
b3JpZGExHTAbBgkqhkiG9w0BCQEWDmluZm9AemVyb2MuY29tMREwDwYDVQQLEwhD
aGF0RGVtb4IJAK09pFAgylVxMA0GCSqGSIb3DQEBBAUAA4IBAQA8IuAvzdZ4ST/Z
z0zNHpyYhLbs71vVtyCVduIQXeaNX3A8E6fgbhHq1dWQ1SIRyDef9hDsqJJQMOFU
7Whkb0tHDef5L/jt1fkG0COE7xBDwZ6bwmt4enPXvsk1SNkAmdxP9UoBPX5ovzbr
m76PmDvhN7PtAklf8PSgv+rZqWL/CoQtWRK5fYmrRtDTiTmG/BgqNTzBvbVRunjQ
uBt7IEQWbqa34oAG7n2e0eCqLrlD0/wbZOPT52ayoirz89vGEc/igtICbJHYzVXl
rm5eB+/KIFOE/t0xO5Ti8gfPUHqcnepmSkRJBvJGu0UjtHSde/ud1PO3p6el4Sro
Wqtl+yf6
-----END CERTIFICATE-----
