Certificate:
    Data:
        Version: 3 (0x2)
        Serial Number: 1 (0x1)
        Signature Algorithm: md5WithRSAEncryption
        Issuer: C=US, CN=ZeroC Chat Demo CA, L=Palm Beach Gardens, O=ZeroC, Inc., ST=Florida/emailAddress=info@zeroc.com, OU=Chat Demo
        Validity
            Not Before: Jun 17 13:33:30 2008 GMT
            Not After : Jun 16 13:33:30 2013 GMT
        Subject: C=US, CN=Glacier2, L=Palm Beach Gardens, O=ZeroC, Inc., ST=Florida, OU=Chat Demo
        Subject Public Key Info:
            Public Key Algorithm: rsaEncryption
            RSA Public Key: (1024 bit)
                Modulus (1024 bit):
                    00:c5:32:16:5d:7c:f8:86:45:09:ae:d0:09:36:ac:
                    14:26:af:41:13:f2:34:8f:76:fb:7e:8d:0d:73:a2:
                    31:da:71:19:1f:2f:6b:93:84:d3:9e:16:81:04:cf:
                    dc:ec:4b:58:fe:69:64:e4:b5:29:c1:41:34:75:b4:
                    d6:a7:f7:26:05:c6:93:98:7a:1b:f0:d7:0a:f4:7b:
                    7a:9f:09:4f:25:83:0a:ba:a8:b3:db:30:0c:8b:05:
                    83:38:b8:64:e3:a4:33:fb:17:58:4e:98:14:08:07:
                    db:af:11:8a:91:14:d8:1b:5f:78:38:7d:45:80:e0:
                    00:6b:3e:3c:2e:73:34:7d:19
                Exponent: 65537 (0x10001)
        X509v3 extensions:
            X509v3 Basic Constraints:
                CA:FALSE
            X509v3 Subject Key Identifier:
                C2:E8:D3:33:D7:83:99:6E:08:F7:C2:34:31:F7:1E:8E:44:87:38:57
            X509v3 Authority Key Identifier:
                keyid:F7:9D:27:33:67:DD:A9:9B:39:71:2E:C3:83:99:95:87:96:16:13:6E
                DirName:/C=US/CN=ZeroC Chat Demo CA/L=Palm Beach Gardens/O=ZeroC, Inc./ST=Florida/emailAddress=info@zeroc.com/OU=Chat Demo
                serial:87:9C:F0:E8:50:A3:7D:61

    Signature Algorithm: md5WithRSAEncryption
        a2:48:47:ab:a5:db:75:97:21:3d:13:c5:e0:19:48:28:3e:f8:
        19:46:a8:70:e5:3e:c7:f9:14:4f:c3:d1:4d:8e:0e:09:12:cc:
        00:fd:17:19:fd:43:ea:ae:58:ae:8f:89:8b:6e:fa:94:d6:4f:
        b7:e8:1f:86:df:11:e2:a6:af:02:61:30:1a:a5:c5:a9:f4:bf:
        87:ba:53:8e:a0:fc:9b:75:47:ef:f5:8e:cd:48:3d:0d:17:58:
        93:22:ce:cf:01:83:92:f8:3d:44:10:bd:db:91:c6:8b:8d:70:
        70:99:84:3b:80:cf:f5:bb:0f:15:e7:d8:97:56:f9:2b:59:d2:
        1c:d1:8b:7c:fe:e8:ab:57:9d:59:b1:0e:1a:d1:af:48:71:73:
        f5:11:2b:46:92:4c:7a:e2:bc:37:c2:85:3c:a7:64:70:76:f9:
        c2:4f:50:26:1a:7d:50:8d:10:7a:05:fb:77:79:97:bc:bf:2a:
        dc:75:8f:13:1a:54:33:3c:f1:64:f4:97:28:5f:f9:14:48:1f:
        b3:13:fc:8b:96:88:24:0a:40:37:b8:32:d9:92:50:ed:b4:76:
        fb:69:20:d3:85:ac:40:19:01:c8:b2:dd:07:df:8f:a1:08:fc:
        64:63:7a:90:9d:8e:db:0b:1e:2b:4b:2e:e3:d3:8a:43:2a:b3:
        a2:52:b2:a9
-----BEGIN CERTIFICATE-----
MIIEHTCCAwWgAwIBAgIBATANBgkqhkiG9w0BAQQFADCBojELMAkGA1UEBhMCVVMx
GzAZBgNVBAMTElplcm9DIENoYXQgRGVtbyBDQTEbMBkGA1UEBxMSUGFsbSBCZWFj
aCBHYXJkZW5zMRQwEgYDVQQKEwtaZXJvQywgSW5jLjEQMA4GA1UECBMHRmxvcmlk
YTEdMBsGCSqGSIb3DQEJARYOaW5mb0B6ZXJvYy5jb20xEjAQBgNVBAsTCUNoYXQg
RGVtbzAeFw0wODA2MTcxMzMzMzBaFw0xMzA2MTYxMzMzMzBaMHkxCzAJBgNVBAYT
AlVTMREwDwYDVQQDEwhHbGFjaWVyMjEbMBkGA1UEBxMSUGFsbSBCZWFjaCBHYXJk
ZW5zMRQwEgYDVQQKEwtaZXJvQywgSW5jLjEQMA4GA1UECBMHRmxvcmlkYTESMBAG
A1UECxMJQ2hhdCBEZW1vMIGfMA0GCSqGSIb3DQEBAQUAA4GNADCBiQKBgQDFMhZd
fPiGRQmu0Ak2rBQmr0ET8jSPdvt+jQ1zojHacRkfL2uThNOeFoEEz9zsS1j+aWTk
tSnBQTR1tNan9yYFxpOYehvw1wr0e3qfCU8lgwq6qLPbMAyLBYM4uGTjpDP7F1hO
mBQIB9uvEYqRFNgbX3g4fUWA4ABrPjwuczR9GQIDAQABo4IBCDCCAQQwCQYDVR0T
BAIwADAdBgNVHQ4EFgQUwujTM9eDmW4I98I0MfcejkSHOFcwgdcGA1UdIwSBzzCB
zIAU950nM2fdqZs5cS7Dg5mVh5YWE26hgaikgaUwgaIxCzAJBgNVBAYTAlVTMRsw
GQYDVQQDExJaZXJvQyBDaGF0IERlbW8gQ0ExGzAZBgNVBAcTElBhbG0gQmVhY2gg
R2FyZGVuczEUMBIGA1UEChMLWmVyb0MsIEluYy4xEDAOBgNVBAgTB0Zsb3JpZGEx
HTAbBgkqhkiG9w0BCQEWDmluZm9AemVyb2MuY29tMRIwEAYDVQQLEwlDaGF0IERl
bW+CCQCHnPDoUKN9YTANBgkqhkiG9w0BAQQFAAOCAQEAokhHq6XbdZchPRPF4BlI
KD74GUaocOU+x/kUT8PRTY4OCRLMAP0XGf1D6q5Yro+Ji276lNZPt+gfht8R4qav
AmEwGqXFqfS/h7pTjqD8m3VH7/WOzUg9DRdYkyLOzwGDkvg9RBC925HGi41wcJmE
O4DP9bsPFefYl1b5K1nSHNGLfP7oq1edWbEOGtGvSHFz9RErRpJMeuK8N8KFPKdk
cHb5wk9QJhp9UI0QegX7d3mXvL8q3HWPExpUMzzxZPSXKF/5FEgfsxP8i5aIJApA
N7gy2ZJQ7bR2+2kg04WsQBkByLLdB9+PoQj8ZGN6kJ2O2wseK0su49OKQyqzolKy
qQ==
-----END CERTIFICATE-----
